; ModuleID = 'source-C-CXX/59/1744.c'
source_filename = "source-C-CXX/59/1744.c"
target datalayout = "e-m:e-p270:32:32-p271:32:32-p272:64:64-i64:64-f80:128-n8:16:32:64-S128"
target triple = "x86_64-pc-linux-gnu"

@.str = private unnamed_addr constant [3 x i8] c"%d\00", align 1
@.str.1 = private unnamed_addr constant [7 x i8] c"%d %d\0A\00", align 1
@.str.2 = private unnamed_addr constant [6 x i8] c"empty\00", align 1

; Function Attrs: nofree norecurse nosync nounwind readnone sspstrong uwtable
define dso_local i32 @su(i32 %0) local_unnamed_addr #0 {
  %2 = icmp sgt i32 %0, 2
  br i1 %2, label %5, label %10

3:                                                ; preds = %5
  %4 = icmp eq i32 %9, %0
  br i1 %4, label %10, label %5, !llvm.loop !5

5:                                                ; preds = %1, %3
  %6 = phi i32 [ %9, %3 ], [ 2, %1 ]
  %7 = srem i32 %0, %6
  %8 = icmp eq i32 %7, 0
  %9 = add nuw nsw i32 %6, 1
  br i1 %8, label %10, label %3

10:                                               ; preds = %3, %5, %1
  %11 = phi i32 [ 1, %1 ], [ 0, %5 ], [ 1, %3 ]
  ret i32 %11
}

; Function Attrs: argmemonly mustprogress nofree nosync nounwind willreturn
declare void @llvm.lifetime.start.p0i8(i64 immarg, i8* nocapture) #1

; Function Attrs: argmemonly mustprogress nofree nosync nounwind willreturn
declare void @llvm.lifetime.end.p0i8(i64 immarg, i8* nocapture) #1

; Function Attrs: nofree nounwind sspstrong uwtable
define dso_local i32 @main() local_unnamed_addr #2 {
  %1 = alloca i32, align 4
  %2 = bitcast i32* %1 to i8*
  call void @llvm.lifetime.start.p0i8(i64 4, i8* nonnull %2) #4
  %3 = call i32 (i8*, ...) @__isoc99_scanf(i8* getelementptr inbounds ([3 x i8], [3 x i8]* @.str, i64 0, i64 0), i32* nonnull %1)
  %4 = load i32, i32* %1, align 4, !tbaa !7
  %5 = icmp sgt i32 %4, 3
  br i1 %5, label %6, label %38

6:                                                ; preds = %0, %30
  %7 = phi i32 [ %31, %30 ], [ %4, %0 ]
  %8 = phi i32 [ %32, %30 ], [ 0, %0 ]
  %9 = phi i32 [ %33, %30 ], [ 2, %0 ]
  %10 = icmp ugt i32 %9, 2
  br i1 %10, label %13, label %18

11:                                               ; preds = %13
  %12 = icmp eq i32 %17, %9
  br i1 %12, label %18, label %13, !llvm.loop !5

13:                                               ; preds = %6, %11
  %14 = phi i32 [ %17, %11 ], [ 2, %6 ]
  %15 = urem i32 %9, %14
  %16 = icmp eq i32 %15, 0
  %17 = add nuw nsw i32 %14, 1
  br i1 %16, label %30, label %11

18:                                               ; preds = %11, %6
  %19 = add nuw nsw i32 %9, 2
  br label %22

20:                                               ; preds = %22
  %21 = icmp eq i32 %26, %19
  br i1 %21, label %27, label %22, !llvm.loop !5

22:                                               ; preds = %20, %18
  %23 = phi i32 [ %26, %20 ], [ 2, %18 ]
  %24 = urem i32 %19, %23
  %25 = icmp eq i32 %24, 0
  %26 = add nuw nsw i32 %23, 1
  br i1 %25, label %30, label %20

27:                                               ; preds = %20
  %28 = call i32 (i8*, ...) @printf(i8* nonnull dereferenceable(1) getelementptr inbounds ([7 x i8], [7 x i8]* @.str.1, i64 0, i64 0), i32 %9, i32 %19)
  %29 = load i32, i32* %1, align 4, !tbaa !7
  br label %30

30:                                               ; preds = %13, %22, %27
  %31 = phi i32 [ %29, %27 ], [ %7, %22 ], [ %7, %13 ]
  %32 = phi i32 [ 1, %27 ], [ %8, %22 ], [ %8, %13 ]
  %33 = add nuw nsw i32 %9, 1
  %34 = add nsw i32 %31, -1
  %35 = icmp slt i32 %33, %34
  br i1 %35, label %6, label %36, !llvm.loop !11

36:                                               ; preds = %30
  %37 = icmp eq i32 %32, 0
  br i1 %37, label %38, label %40

38:                                               ; preds = %0, %36
  %39 = call i32 (i8*, ...) @printf(i8* nonnull dereferenceable(1) getelementptr inbounds ([6 x i8], [6 x i8]* @.str.2, i64 0, i64 0))
  br label %40

40:                                               ; preds = %38, %36
  call void @llvm.lifetime.end.p0i8(i64 4, i8* nonnull %2) #4
  ret i32 0
}

; Function Attrs: nofree nounwind
declare noundef i32 @__isoc99_scanf(i8* nocapture noundef readonly, ...) local_unnamed_addr #3

; Function Attrs: nofree nounwind
declare noundef i32 @printf(i8* nocapture noundef readonly, ...) local_unnamed_addr #3


!llvm.module.flags = !{!0, !1, !2, !3}
!llvm.ident = !{!4}

!0 = !{i32 1, !"wchar_size", i32 4}
!1 = !{i32 7, !"PIC Level", i32 2}
!2 = !{i32 7, !"PIE Level", i32 2}
!3 = !{i32 7, !"uwtable", i32 1}
!4 = !{!"clang version 13.0.0"}
!5 = distinct !{!5, !6}
!6 = !{!"llvm.loop.mustprogress"}
!7 = !{!8, !8, i64 0}
!8 = !{!"int", !9, i64 0}
!9 = !{!"omnipotent char", !10, i64 0}
!10 = !{!"Simple C/C++ TBAA"}
!11 = distinct !{!11, !6}
